; Function Attrs: nounwind uwtable
define internal void @spl_filesystem_tree_it_rewind(ptr noundef %0) #0 {
  %2 = getelementptr i8, ptr %0, i64 104
  %.val = load ptr, ptr %2, align 8
  %3 = getelementptr inbounds i8, ptr %.val, i64 48
  %4 = load i64, ptr %3, align 8
  %.fr14 = freeze i64 %4
  %5 = and i64 %.fr14, 4096
  %.not = icmp eq i64 %5, 0
  %6 = getelementptr inbounds i8, ptr %.val, i64 72
  %7 = getelementptr inbounds i8, ptr %.val, i64 88
  store i32 0, ptr %7, align 8
  %8 = load ptr, ptr %6, align 8
  %.not12 = icmp eq ptr %8, null
  br i1 %.not12, label %11, label %9

9:                                                ; preds = %1
  %10 = tail call i32 @_php_stream_seek(ptr noundef nonnull %8, i64 noundef 0, i32 noundef 0) #18
  br label %11

11:                                               ; preds = %9, %1
  %12 = getelementptr inbounds i8, ptr %.val, i64 32
  %13 = getelementptr inbounds i8, ptr %.val, i64 120
  br i1 %.not, label %spl_filesystem_is_dot.exit.us, label %spl_filesystem_is_dot.exit

spl_filesystem_is_dot.exit.us:                    ; preds = %11
  %14 = load ptr, ptr %12, align 8
  %.not.i.us = icmp eq ptr %14, null
  br i1 %.not.i.us, label %29, label %15

15:                                               ; preds = %spl_filesystem_is_dot.exit.us
  %16 = getelementptr inbounds i8, ptr %14, i64 4
  %17 = load i32, ptr %16, align 4
  %18 = and i32 %17, 64
  %.not18.i.us = icmp eq i32 %18, 0
  br i1 %.not18.i.us, label %19, label %28

19:                                               ; preds = %15
  %20 = load i32, ptr %14, align 4
  %21 = icmp ne i32 %20, 0
  tail call void @llvm.assume(i1 %21)
  %22 = add i32 %20, -1
  store i32 %22, ptr %14, align 4
  %23 = icmp eq i32 %22, 0
  br i1 %23, label %24, label %28

24:                                               ; preds = %19
  %25 = and i32 %17, 128
  %.not19.i.us = icmp eq i32 %25, 0
  br i1 %.not19.i.us, label %27, label %26

26:                                               ; preds = %24
  tail call void @free(ptr noundef nonnull %14) #18
  br label %28

27:                                               ; preds = %24
  tail call void @_efree(ptr noundef nonnull %14) #18
  br label %28

28:                                               ; preds = %27, %26, %19, %15
  store ptr null, ptr %12, align 8
  br label %29

29:                                               ; preds = %28, %spl_filesystem_is_dot.exit.us
  %30 = load ptr, ptr %6, align 8
  %.not20.i.us = icmp eq ptr %30, null
  br i1 %.not20.i.us, label %33, label %31

31:                                               ; preds = %29
  %32 = tail call ptr @_php_stream_readdir(ptr noundef nonnull %30, ptr noundef nonnull %13) #18
  %.not21.i.us = icmp eq ptr %32, null
  br i1 %.not21.i.us, label %33, label %.critedge

33:                                               ; preds = %31, %29
  store i8 0, ptr %13, align 8
  br label %.critedge

spl_filesystem_is_dot.exit:                       ; preds = %11, %spl_filesystem_is_dot.exit.backedge
  %34 = load ptr, ptr %12, align 8
  %.not.i = icmp eq ptr %34, null
  br i1 %.not.i, label %49, label %35

35:                                               ; preds = %spl_filesystem_is_dot.exit
  %36 = getelementptr inbounds i8, ptr %34, i64 4
  %37 = load i32, ptr %36, align 4
  %38 = and i32 %37, 64
  %.not18.i = icmp eq i32 %38, 0
  br i1 %.not18.i, label %39, label %48

39:                                               ; preds = %35
  %40 = load i32, ptr %34, align 4
  %41 = icmp ne i32 %40, 0
  tail call void @llvm.assume(i1 %41)
  %42 = add i32 %40, -1
  store i32 %42, ptr %34, align 4
  %43 = icmp eq i32 %42, 0
  br i1 %43, label %44, label %48

44:                                               ; preds = %39
  %45 = and i32 %37, 128
  %.not19.i = icmp eq i32 %45, 0
  br i1 %.not19.i, label %47, label %46

46:                                               ; preds = %44
  tail call void @free(ptr noundef nonnull %34) #18
  br label %48

47:                                               ; preds = %44
  tail call void @_efree(ptr noundef nonnull %34) #18
  br label %48

48:                                               ; preds = %47, %46, %39, %35
  store ptr null, ptr %12, align 8
  br label %49

49:                                               ; preds = %48, %spl_filesystem_is_dot.exit
  %50 = load ptr, ptr %6, align 8
  %.not20.i = icmp eq ptr %50, null
  br i1 %.not20.i, label %53, label %51

51:                                               ; preds = %49
  %52 = tail call ptr @_php_stream_readdir(ptr noundef nonnull %50, ptr noundef nonnull %13) #18
  %.not21.i = icmp eq ptr %52, null
  br i1 %.not21.i, label %53, label %spl_filesystem_dir_read.exit

53:                                               ; preds = %51, %49
  store i8 0, ptr %13, align 8
  br label %spl_filesystem_dir_read.exit

spl_filesystem_dir_read.exit:                     ; preds = %51, %53
  %54 = tail call i32 @strcmp(ptr noundef nonnull dereferenceable(1) %13, ptr noundef nonnull dereferenceable(2) @.str.39) #20
  %.not.i13 = icmp eq i32 %54, 0
  br i1 %.not.i13, label %spl_filesystem_is_dot.exit.backedge, label %55

55:                                               ; preds = %spl_filesystem_dir_read.exit
  %56 = tail call i32 @strcmp(ptr noundef nonnull dereferenceable(1) %13, ptr noundef nonnull dereferenceable(3) @.str.40) #20
  %.not2.i = icmp eq i32 %56, 0
  br i1 %.not2.i, label %spl_filesystem_is_dot.exit.backedge, label %.critedge

spl_filesystem_is_dot.exit.backedge:              ; preds = %55, %spl_filesystem_dir_read.exit
  br label %spl_filesystem_is_dot.exit

.critedge:                                        ; preds = %55, %33, %31
  %57 = getelementptr inbounds i8, ptr %0, i64 96
  %58 = load i8, ptr %57, align 8
  %59 = icmp eq i8 %58, 0
  br i1 %59, label %62, label %60

60:                                               ; preds = %.critedge
  %61 = getelementptr inbounds i8, ptr %0, i64 88
  tail call void @zval_ptr_dtor(ptr noundef nonnull %61) #18
  store i32 0, ptr %57, align 8
  br label %62

62:                                               ; preds = %60, %.critedge
  ret void
}